target datalayout = "e-m:e-p270:32:32-p271:32:32-p272:64:64-i64:64-i128:128-f80:128-n8:16:32:64-S128"
target triple = "x86_64-pc-linux-gnu"

; Function Attrs: nounwind uwtable
define internal zeroext i8 @lv_text_utf8_size(ptr noundef %0) #0 {
  %2 = alloca i8, align 1
  %3 = alloca ptr, align 8
  store ptr %0, ptr %3, align 8, !tbaa !3
  %4 = load ptr, ptr %3, align 8, !tbaa !3
  %5 = getelementptr inbounds i8, ptr %4, i64 0
  %6 = load i8, ptr %5, align 1, !tbaa !7
  %7 = sext i8 %6 to i32
  %8 = and i32 %7, 128
  %9 = icmp eq i32 %8, 0
  br i1 %9, label %10, label %11

10:                                               ; preds = %1
  store i8 1, ptr %2, align 1
  br label %39

11:                                               ; preds = %1
  %12 = load ptr, ptr %3, align 8, !tbaa !3
  %13 = getelementptr inbounds i8, ptr %12, i64 0
  %14 = load i8, ptr %13, align 1, !tbaa !7
  %15 = sext i8 %14 to i32
  %16 = and i32 %15, 224
  %17 = icmp eq i32 %16, 192
  br i1 %17, label %18, label %19

18:                                               ; preds = %11
  store i8 2, ptr %2, align 1
  br label %39

19:                                               ; preds = %11
  %20 = load ptr, ptr %3, align 8, !tbaa !3
  %21 = getelementptr inbounds i8, ptr %20, i64 0
  %22 = load i8, ptr %21, align 1, !tbaa !7
  %23 = sext i8 %22 to i32
  %24 = and i32 %23, 240
  %25 = icmp eq i32 %24, 224
  br i1 %25, label %26, label %27

26:                                               ; preds = %19
  store i8 3, ptr %2, align 1
  br label %39

27:                                               ; preds = %19
  %28 = load ptr, ptr %3, align 8, !tbaa !3
  %29 = getelementptr inbounds i8, ptr %28, i64 0
  %30 = load i8, ptr %29, align 1, !tbaa !7
  %31 = sext i8 %30 to i32
  %32 = and i32 %31, 248
  %33 = icmp eq i32 %32, 240
  br i1 %33, label %34, label %35

34:                                               ; preds = %27
  store i8 4, ptr %2, align 1
  br label %39

35:                                               ; preds = %27
  br label %36

36:                                               ; preds = %35
  br label %37

37:                                               ; preds = %36
  br label %38

38:                                               ; preds = %37
  store i8 0, ptr %2, align 1
  br label %39

39:                                               ; preds = %38, %34, %26, %18, %10
  %40 = load i8, ptr %2, align 1
  ret i8 %40
}

; Function Attrs: nounwind uwtable
define internal i32 @lv_text_utf8_get_byte_id(ptr noundef %0, i32 noundef %1) #0 {
  %3 = alloca ptr, align 8
  %4 = alloca i32, align 4
  %5 = alloca i32, align 4
  %6 = alloca i32, align 4
  %7 = alloca i8, align 1
  store ptr %0, ptr %3, align 8, !tbaa !3
  store i32 %1, ptr %4, align 4, !tbaa !8
  call void @llvm.lifetime.start.p0(i64 4, ptr %5) #5
  call void @llvm.lifetime.start.p0(i64 4, ptr %6) #5
  store i32 0, ptr %6, align 4, !tbaa !8
  store i32 0, ptr %5, align 4, !tbaa !8
  br label %8

8:                                                ; preds = %39, %2
  %9 = load i32, ptr %5, align 4, !tbaa !8
  %10 = load i32, ptr %4, align 4, !tbaa !8
  %11 = icmp ult i32 %9, %10
  br i1 %11, label %12, label %20

12:                                               ; preds = %8
  %13 = load ptr, ptr %3, align 8, !tbaa !3
  %14 = load i32, ptr %6, align 4, !tbaa !8
  %15 = zext i32 %14 to i64
  %16 = getelementptr inbounds nuw i8, ptr %13, i64 %15
  %17 = load i8, ptr %16, align 1, !tbaa !7
  %18 = sext i8 %17 to i32
  %19 = icmp ne i32 %18, 0
  br label %20

20:                                               ; preds = %12, %8
  %21 = phi i1 [ false, %8 ], [ %19, %12 ]
  br i1 %21, label %22, label %42

22:                                               ; preds = %20
  call void @llvm.lifetime.start.p0(i64 1, ptr %7) #5
  %23 = load ptr, ptr %3, align 8, !tbaa !3
  %24 = load i32, ptr %6, align 4, !tbaa !8
  %25 = zext i32 %24 to i64
  %26 = getelementptr inbounds nuw i8, ptr %23, i64 %25
  %27 = call zeroext i8 @lv_text_utf8_size(ptr noundef %26)
  store i8 %27, ptr %7, align 1, !tbaa !7
  %28 = load i8, ptr %7, align 1, !tbaa !7
  %29 = zext i8 %28 to i32
  %30 = icmp ne i32 %29, 0
  br i1 %30, label %31, label %34

31:                                               ; preds = %22
  %32 = load i8, ptr %7, align 1, !tbaa !7
  %33 = zext i8 %32 to i32
  br label %35

34:                                               ; preds = %22
  br label %35

35:                                               ; preds = %34, %31
  %36 = phi i32 [ %33, %31 ], [ 1, %34 ]
  %37 = load i32, ptr %6, align 4, !tbaa !8
  %38 = add i32 %37, %36
  store i32 %38, ptr %6, align 4, !tbaa !8
  call void @llvm.lifetime.end.p0(i64 1, ptr %7) #5
  br label %39

39:                                               ; preds = %35
  %40 = load i32, ptr %5, align 4, !tbaa !8
  %41 = add i32 %40, 1
  store i32 %41, ptr %5, align 4, !tbaa !8
  br label %8, !llvm.loop !13

42:                                               ; preds = %20
  %43 = load i32, ptr %6, align 4, !tbaa !8
  call void @llvm.lifetime.end.p0(i64 4, ptr %6) #5
  call void @llvm.lifetime.end.p0(i64 4, ptr %5) #5
  ret i32 %43
}

; Function Attrs: nounwind uwtable
define void @lv_text_ins(ptr noundef %0, i32 noundef %1, ptr noundef %2) #0 {
  %4 = alloca ptr, align 8
  %5 = alloca i32, align 4
  %6 = alloca ptr, align 8
  %7 = alloca i64, align 8
  %8 = alloca i64, align 8
  %9 = alloca i32, align 4
  %10 = alloca i64, align 8
  %11 = alloca i64, align 8
  store ptr %0, ptr %4, align 8, !tbaa !3
  store i32 %1, ptr %5, align 4, !tbaa !8
  store ptr %2, ptr %6, align 8, !tbaa !3
  %12 = load ptr, ptr %4, align 8, !tbaa !3
  %13 = icmp eq ptr %12, null
  br i1 %13, label %17, label %14

14:                                               ; preds = %3
  %15 = load ptr, ptr %6, align 8, !tbaa !3
  %16 = icmp eq ptr %15, null
  br i1 %16, label %17, label %18

17:                                               ; preds = %14, %3
  br label %64

18:                                               ; preds = %14
  call void @llvm.lifetime.start.p0(i64 8, ptr %7) #5
  %19 = load ptr, ptr %4, align 8, !tbaa !3
  %20 = call i64 @lv_strlen(ptr noundef %19)
  store i64 %20, ptr %7, align 8, !tbaa !31
  call void @llvm.lifetime.start.p0(i64 8, ptr %8) #5
  %21 = load ptr, ptr %6, align 8, !tbaa !3
  %22 = call i64 @lv_strlen(ptr noundef %21)
  store i64 %22, ptr %8, align 8, !tbaa !31
  %23 = load i64, ptr %8, align 8, !tbaa !31
  %24 = icmp eq i64 %23, 0
  br i1 %24, label %25, label %26

25:                                               ; preds = %18
  store i32 1, ptr %9, align 4
  br label %62

26:                                               ; preds = %18
  call void @llvm.lifetime.start.p0(i64 8, ptr %10) #5
  %27 = load i64, ptr %8, align 8, !tbaa !31
  %28 = load i64, ptr %7, align 8, !tbaa !31
  %29 = add i64 %27, %28
  store i64 %29, ptr %10, align 8, !tbaa !31
  %30 = load ptr, ptr %4, align 8, !tbaa !3
  %31 = load i32, ptr %5, align 4, !tbaa !8
  %32 = call i32 @lv_text_utf8_get_byte_id(ptr noundef %30, i32 noundef %31)
  store i32 %32, ptr %5, align 4, !tbaa !8
  call void @llvm.lifetime.start.p0(i64 8, ptr %11) #5
  %33 = load i64, ptr %10, align 8, !tbaa !31
  store i64 %33, ptr %11, align 8, !tbaa !31
  br label %34

34:                                               ; preds = %51, %26
  %35 = load i64, ptr %11, align 8, !tbaa !31
  %36 = load i32, ptr %5, align 4, !tbaa !8
  %37 = zext i32 %36 to i64
  %38 = load i64, ptr %8, align 8, !tbaa !31
  %39 = add i64 %37, %38
  %40 = icmp uge i64 %35, %39
  br i1 %40, label %41, label %54

41:                                               ; preds = %34
  %42 = load ptr, ptr %4, align 8, !tbaa !3
  %43 = load i64, ptr %11, align 8, !tbaa !31
  %44 = load i64, ptr %8, align 8, !tbaa !31
  %45 = sub i64 %43, %44
  %46 = getelementptr inbounds nuw i8, ptr %42, i64 %45
  %47 = load i8, ptr %46, align 1, !tbaa !7
  %48 = load ptr, ptr %4, align 8, !tbaa !3
  %49 = load i64, ptr %11, align 8, !tbaa !31
  %50 = getelementptr inbounds nuw i8, ptr %48, i64 %49
  store i8 %47, ptr %50, align 1, !tbaa !7
  br label %51

51:                                               ; preds = %41
  %52 = load i64, ptr %11, align 8, !tbaa !31
  %53 = add i64 %52, -1
  store i64 %53, ptr %11, align 8, !tbaa !31
  br label %34, !llvm.loop !33

54:                                               ; preds = %34
  %55 = load ptr, ptr %4, align 8, !tbaa !3
  %56 = load i32, ptr %5, align 4, !tbaa !8
  %57 = zext i32 %56 to i64
  %58 = getelementptr inbounds nuw i8, ptr %55, i64 %57
  %59 = load ptr, ptr %6, align 8, !tbaa !3
  %60 = load i64, ptr %8, align 8, !tbaa !31
  %61 = call ptr @lv_memcpy(ptr noundef %58, ptr noundef %59, i64 noundef %60)
  call void @llvm.lifetime.end.p0(i64 8, ptr %11) #5
  call void @llvm.lifetime.end.p0(i64 8, ptr %10) #5
  store i32 0, ptr %9, align 4
  br label %62

62:                                               ; preds = %54, %25
  call void @llvm.lifetime.end.p0(i64 8, ptr %8) #5
  call void @llvm.lifetime.end.p0(i64 8, ptr %7) #5
  %63 = load i32, ptr %9, align 4
  switch i32 %63, label %65 [
    i32 0, label %64
    i32 1, label %64
  ]

64:                                               ; preds = %17, %62, %62
  ret void

65:                                               ; preds = %62
  unreachable
}