; Function Attrs: nounwind uwtable
define void @lv_text_ins(ptr noundef %0, i32 noundef %1, ptr noundef %2) local_unnamed_addr #2 {
  %4 = icmp eq ptr %0, null
  %5 = icmp eq ptr %2, null
  %or.cond = or i1 %4, %5
  br i1 %or.cond, label %39, label %6

6:                                                ; preds = %3
  %7 = tail call i64 @lv_strlen(ptr noundef nonnull %0) #11
  %8 = tail call i64 @lv_strlen(ptr noundef nonnull %2) #11
  %9 = icmp eq i64 %8, 0
  br i1 %9, label %39, label %10

10:                                               ; preds = %6
  %11 = add i64 %8, %7
  %.not16.i = icmp eq i32 %1, 0
  br i1 %.not16.i, label %lv_text_utf8_get_byte_id.exit, label %.lr.ph.i

.lr.ph.i:                                         ; preds = %10, %lv_text_utf8_size.exit.i
  %.013.i = phi i32 [ %29, %lv_text_utf8_size.exit.i ], [ 0, %10 ]
  %.01012.i = phi i32 [ %28, %lv_text_utf8_size.exit.i ], [ 0, %10 ]
  %12 = zext i32 %.01012.i to i64
  %13 = getelementptr inbounds nuw i8, ptr %0, i64 %12
  %14 = load i8, ptr %13, align 1, !tbaa !3
  %.not.i = icmp eq i8 %14, 0
  br i1 %.not.i, label %lv_text_utf8_get_byte_id.exit.loopexit, label %15

15:                                               ; preds = %.lr.ph.i
  %16 = zext i8 %14 to i32
  %17 = icmp sgt i8 %14, -1
  br i1 %17, label %lv_text_utf8_size.exit.i, label %18

18:                                               ; preds = %15
  %19 = and i32 %16, 224
  %20 = icmp eq i32 %19, 192
  br i1 %20, label %lv_text_utf8_size.exit.i, label %21

21:                                               ; preds = %18
  %22 = and i32 %16, 240
  %23 = icmp eq i32 %22, 224
  br i1 %23, label %lv_text_utf8_size.exit.i, label %24

24:                                               ; preds = %21
  %25 = and i32 %16, 248
  %26 = icmp eq i32 %25, 240
  %..i.i = select i1 %26, i8 4, i8 0
  br label %lv_text_utf8_size.exit.i

lv_text_utf8_size.exit.i:                         ; preds = %24, %21, %18, %15
  %.0.i.i = phi i8 [ 1, %15 ], [ 2, %18 ], [ 3, %21 ], [ %..i.i, %24 ]
  %narrow.i = tail call i8 @llvm.umax.i8(i8 %.0.i.i, i8 1)
  %27 = zext nneg i8 %narrow.i to i32
  %28 = add i32 %.01012.i, %27
  %29 = add nuw i32 %.013.i, 1
  %exitcond.not.i = icmp eq i32 %29, %1
  br i1 %exitcond.not.i, label %lv_text_utf8_get_byte_id.exit.loopexit, label %.lr.ph.i, !llvm.loop !11

lv_text_utf8_get_byte_id.exit.loopexit:           ; preds = %lv_text_utf8_size.exit.i, %.lr.ph.i
  %.010.lcssa.i.ph = phi i32 [ %28, %lv_text_utf8_size.exit.i ], [ %.01012.i, %.lr.ph.i ]
  %30 = zext i32 %.010.lcssa.i.ph to i64
  br label %lv_text_utf8_get_byte_id.exit

lv_text_utf8_get_byte_id.exit:                    ; preds = %lv_text_utf8_get_byte_id.exit.loopexit, %10
  %.010.lcssa.i = phi i64 [ 0, %10 ], [ %30, %lv_text_utf8_get_byte_id.exit.loopexit ]
  %31 = add i64 %8, %.010.lcssa.i
  %.not26 = icmp ult i64 %11, %31
  br i1 %.not26, label %._crit_edge, label %.lr.ph

.lr.ph:                                           ; preds = %lv_text_utf8_get_byte_id.exit, %.lr.ph
  %.027 = phi i64 [ %36, %.lr.ph ], [ %11, %lv_text_utf8_get_byte_id.exit ]
  %32 = sub i64 %.027, %8
  %33 = getelementptr inbounds nuw i8, ptr %0, i64 %32
  %34 = load i8, ptr %33, align 1, !tbaa !3
  %35 = getelementptr inbounds nuw i8, ptr %0, i64 %.027
  store i8 %34, ptr %35, align 1, !tbaa !3
  %36 = add i64 %.027, -1
  %.not = icmp ult i64 %36, %31
  br i1 %.not, label %._crit_edge, label %.lr.ph, !llvm.loop !23

._crit_edge:                                      ; preds = %.lr.ph, %lv_text_utf8_get_byte_id.exit
  %37 = getelementptr inbounds nuw i8, ptr %0, i64 %.010.lcssa.i
  %38 = tail call ptr @lv_memcpy(ptr noundef %37, ptr noundef %2, i64 noundef %8) #11
  br label %39

39:                                               ; preds = %._crit_edge, %6, %3
  ret void
}